target datalayout = "e-m:e-p270:32:32-p271:32:32-p272:64:64-i64:64-i128:128-f80:128-n8:16:32:64-S128"
target triple = "x86_64-pc-linux-gnu"

; Function Attrs: mustprogress uwtable
define noundef i32 @_ZN3zmq5ctx_t3getEi(ptr noundef nonnull align 8 dereferenceable(648) %0, i32 noundef %1) #0 align 2 {
  %3 = alloca i32, align 4
  %4 = alloca ptr, align 8
  %5 = alloca i32, align 4
  %6 = alloca i32, align 4
  %7 = alloca i64, align 8
  %8 = alloca i32, align 4
  store ptr %0, ptr %4, align 8, !tbaa !3
  store i32 %1, ptr %5, align 4, !tbaa !92
  %9 = load ptr, ptr %4, align 8
  call void @llvm.lifetime.start.p0(i64 4, ptr %6) #21
  store i32 0, ptr %6, align 4, !tbaa !92
  call void @llvm.lifetime.start.p0(i64 8, ptr %7) #21
  store i64 4, ptr %7, align 8, !tbaa !110
  %10 = load i32, ptr %5, align 4, !tbaa !92
  %11 = call noundef i32 @_ZN3zmq5ctx_t3getEiPvPKm(ptr noundef nonnull align 8 dereferenceable(648) %9, i32 noundef %10, ptr noundef %6, ptr noundef %7)
  %12 = icmp eq i32 %11, 0
  br i1 %12, label %13, label %15

13:                                               ; preds = %2
  %14 = load i32, ptr %6, align 4, !tbaa !92
  store i32 %14, ptr %3, align 4
  store i32 1, ptr %8, align 4
  br label %17

15:                                               ; preds = %2
  %16 = call ptr @__errno_location() #24
  store i32 22, ptr %16, align 4, !tbaa !92
  store i32 -1, ptr %3, align 4
  store i32 1, ptr %8, align 4
  br label %17

17:                                               ; preds = %15, %13
  call void @llvm.lifetime.end.p0(i64 8, ptr %7) #21
  call void @llvm.lifetime.end.p0(i64 4, ptr %6) #21
  %18 = load i32, ptr %3, align 4
  ret i32 %18
}