; Function Attrs: mustprogress uwtable
define noundef i32 @_ZN3zmq5ctx_t3getEi(ptr noundef nonnull align 8 dereferenceable(648) %0, i32 noundef %1) local_unnamed_addr #0 align 2 {
  %3 = alloca i32, align 4
  %4 = alloca i64, align 8
  call void @llvm.lifetime.start.p0(i64 4, ptr nonnull %3) #25
  store i32 0, ptr %3, align 4, !tbaa !124
  call void @llvm.lifetime.start.p0(i64 8, ptr nonnull %4) #25
  store i64 4, ptr %4, align 8, !tbaa !155
  %5 = call noundef i32 @_ZN3zmq5ctx_t3getEiPvPKm(ptr noundef nonnull align 8 dereferenceable(648) %0, i32 noundef %1, ptr noundef nonnull %3, ptr noundef nonnull %4)
  %6 = icmp eq i32 %5, 0
  br i1 %6, label %7, label %9

7:                                                ; preds = %2
  %8 = load i32, ptr %3, align 4, !tbaa !124
  br label %11

9:                                                ; preds = %2
  %10 = tail call ptr @__errno_location() #30
  store i32 22, ptr %10, align 4, !tbaa !124
  br label %11

11:                                               ; preds = %9, %7
  %.0 = phi i32 [ %8, %7 ], [ -1, %9 ]
  call void @llvm.lifetime.end.p0(i64 8, ptr nonnull %4) #25
  call void @llvm.lifetime.end.p0(i64 4, ptr nonnull %3) #25
  ret i32 %.0
}